; Function Attrs: mustprogress nofree norecurse nosync nounwind willreturn memory(write, argmem: readwrite, inaccessiblemem: none) uwtable
define internal void @be_pair_unlink(ptr noundef captures(none) %0) #2 {
  %2 = getelementptr inbounds nuw i8, ptr %0, i64 520
  %3 = load ptr, ptr %2, align 8
  %.not = icmp eq ptr %3, null
  br i1 %.not, label %7, label %4

4:                                                ; preds = %1
  %5 = getelementptr inbounds nuw i8, ptr %0, i64 528
  store ptr %3, ptr %5, align 8
  %6 = getelementptr inbounds nuw i8, ptr %3, i64 520
  store ptr null, ptr %6, align 8
  store ptr null, ptr %2, align 8
  br label %7

7:                                                ; preds = %4, %1
  ret void
}